target datalayout = "e-m:e-p270:32:32-p271:32:32-p272:64:64-i64:64-i128:128-f80:128-n8:16:32:64-S128"
target triple = "x86_64-pc-linux-gnu"

%"struct.cv::text::line_estimates" = type { float, float, float, float, float, float, float, float, i32, i32, i32 }
%"struct.cv::text::region_triplet" = type { %"class.cv::Vec.131", %"class.cv::Vec.131", %"class.cv::Vec.131", %"struct.cv::text::line_estimates" }
%"class.cv::Vec.131" = type { %"class.cv::Matx.132" }
%"class.cv::Matx.132" = type { [2 x i32] }
%"struct.cv::text::region_sequence" = type { %"class.std::vector.133" }
%"class.std::vector.133" = type { %"struct.std::_Vector_base.134" }
%"struct.std::_Vector_base.134" = type { %"struct.std::_Vector_base<cv::text::region_triplet, std::allocator<cv::text::region_triplet>>::_Vector_impl" }
%"struct.std::_Vector_base<cv::text::region_triplet, std::allocator<cv::text::region_triplet>>::_Vector_impl" = type { %"struct.std::_Vector_base<cv::text::region_triplet, std::allocator<cv::text::region_triplet>>::_Vector_impl_data" }
%"struct.std::_Vector_base<cv::text::region_triplet, std::allocator<cv::text::region_triplet>>::_Vector_impl_data" = type { ptr, ptr, ptr }

; Function Attrs: inlinehint mustprogress nounwind uwtable
define linkonce_odr noundef nonnull align 4 dereferenceable(4) ptr @_ZSt3maxIiERKT_S2_S2_(ptr noundef nonnull align 4 dereferenceable(4) %0, ptr noundef nonnull align 4 dereferenceable(4) %1) #5 comdat {
  %3 = alloca ptr, align 8
  %4 = alloca ptr, align 8
  %5 = alloca ptr, align 8
  store ptr %0, ptr %4, align 8, !tbaa !46
  store ptr %1, ptr %5, align 8, !tbaa !46
  %6 = load ptr, ptr %4, align 8, !tbaa !46
  %7 = load i32, ptr %6, align 4, !tbaa !8
  %8 = load ptr, ptr %5, align 8, !tbaa !46
  %9 = load i32, ptr %8, align 4, !tbaa !8
  %10 = icmp slt i32 %7, %9
  br i1 %10, label %11, label %13

11:                                               ; preds = %2
  %12 = load ptr, ptr %5, align 8, !tbaa !46
  store ptr %12, ptr %3, align 8
  br label %15

13:                                               ; preds = %2
  %14 = load ptr, ptr %4, align 8, !tbaa !46
  store ptr %14, ptr %3, align 8
  br label %15

15:                                               ; preds = %13, %11
  %16 = load ptr, ptr %3, align 8
  ret ptr %16
}

; Function Attrs: mustprogress nounwind uwtable
define linkonce_odr hidden noundef nonnull align 4 dereferenceable(68) ptr @_ZNSt6vectorIN2cv4text14region_tripletESaIS2_EEixEm(ptr noundef nonnull align 8 dereferenceable(24) %0, i64 noundef %1) #9 comdat align 2 {
  %3 = alloca ptr, align 8
  %4 = alloca i64, align 8
  store ptr %0, ptr %3, align 8, !tbaa !499
  store i64 %1, ptr %4, align 8, !tbaa !118
  %5 = load ptr, ptr %3, align 8
  %6 = getelementptr inbounds nuw %"struct.std::_Vector_base.134", ptr %5, i32 0, i32 0
  %7 = getelementptr inbounds nuw %"struct.std::_Vector_base<cv::text::region_triplet, std::allocator<cv::text::region_triplet>>::_Vector_impl_data", ptr %6, i32 0, i32 0
  %8 = load ptr, ptr %7, align 8, !tbaa !503
  %9 = load i64, ptr %4, align 8, !tbaa !118
  %10 = getelementptr inbounds nuw %"struct.cv::text::region_triplet", ptr %8, i64 %9
  ret ptr %10
}

; Function Attrs: mustprogress nounwind uwtable
define linkonce_odr hidden noundef i64 @_ZNKSt6vectorIN2cv4text14region_tripletESaIS2_EE4sizeEv(ptr noundef nonnull align 8 dereferenceable(24) %0) #9 comdat align 2 {
  %2 = alloca ptr, align 8
  store ptr %0, ptr %2, align 8, !tbaa !499
  %3 = load ptr, ptr %2, align 8
  %4 = getelementptr inbounds nuw %"struct.std::_Vector_base.134", ptr %3, i32 0, i32 0
  %5 = getelementptr inbounds nuw %"struct.std::_Vector_base<cv::text::region_triplet, std::allocator<cv::text::region_triplet>>::_Vector_impl_data", ptr %4, i32 0, i32 1
  %6 = load ptr, ptr %5, align 8, !tbaa !501
  %7 = getelementptr inbounds nuw %"struct.std::_Vector_base.134", ptr %3, i32 0, i32 0
  %8 = getelementptr inbounds nuw %"struct.std::_Vector_base<cv::text::region_triplet, std::allocator<cv::text::region_triplet>>::_Vector_impl_data", ptr %7, i32 0, i32 0
  %9 = load ptr, ptr %8, align 8, !tbaa !503
  %10 = ptrtoint ptr %6 to i64
  %11 = ptrtoint ptr %9 to i64
  %12 = sub i64 %10, %11
  %13 = sdiv exact i64 %12, 68
  ret i64 %13
}

; Function Attrs: mustprogress uwtable
define hidden noundef zeroext i1 @_ZN2cv4text15isValidSequenceERNS0_15region_sequenceES2_(ptr noundef nonnull align 8 dereferenceable(24) %0, ptr noundef nonnull align 8 dereferenceable(24) %1) #4 {
  %3 = alloca i1, align 1
  %4 = alloca ptr, align 8
  %5 = alloca ptr, align 8
  %6 = alloca i64, align 8
  %7 = alloca i32, align 4
  %8 = alloca i64, align 8
  %9 = alloca i32, align 4
  %10 = alloca i32, align 4
  store ptr %0, ptr %4, align 8, !tbaa !495
  store ptr %1, ptr %5, align 8, !tbaa !495
  call void @llvm.lifetime.start.p0(i64 8, ptr %6) #3
  store i64 0, ptr %6, align 8, !tbaa !118
  br label %11

11:                                               ; preds = %102, %2
  %12 = load i64, ptr %6, align 8, !tbaa !118
  %13 = load ptr, ptr %5, align 8, !tbaa !495
  %14 = getelementptr inbounds nuw %"struct.cv::text::region_sequence", ptr %13, i32 0, i32 0
  %15 = call noundef i64 @_ZNKSt6vectorIN2cv4text14region_tripletESaIS2_EE4sizeEv(ptr noundef nonnull align 8 dereferenceable(24) %14) #3
  %16 = icmp ult i64 %12, %15
  br i1 %16, label %18, label %17

17:                                               ; preds = %11
  store i32 2, ptr %7, align 4
  br label %105

18:                                               ; preds = %11
  call void @llvm.lifetime.start.p0(i64 8, ptr %8) #3
  store i64 0, ptr %8, align 8, !tbaa !118
  br label %19

19:                                               ; preds = %96, %18
  %20 = load i64, ptr %8, align 8, !tbaa !118
  %21 = load ptr, ptr %4, align 8, !tbaa !495
  %22 = getelementptr inbounds nuw %"struct.cv::text::region_sequence", ptr %21, i32 0, i32 0
  %23 = call noundef i64 @_ZNKSt6vectorIN2cv4text14region_tripletESaIS2_EE4sizeEv(ptr noundef nonnull align 8 dereferenceable(24) %22) #3
  %24 = icmp ult i64 %20, %23
  br i1 %24, label %26, label %25

25:                                               ; preds = %19
  store i32 5, ptr %7, align 4
  br label %99

26:                                               ; preds = %19
  %27 = load ptr, ptr %5, align 8, !tbaa !495
  %28 = getelementptr inbounds nuw %"struct.cv::text::region_sequence", ptr %27, i32 0, i32 0
  %29 = load i64, ptr %6, align 8, !tbaa !118
  %30 = call noundef nonnull align 4 dereferenceable(68) ptr @_ZNSt6vectorIN2cv4text14region_tripletESaIS2_EEixEm(ptr noundef nonnull align 8 dereferenceable(24) %28, i64 noundef %29) #3
  %31 = getelementptr inbounds nuw %"struct.cv::text::region_triplet", ptr %30, i32 0, i32 3
  %32 = load ptr, ptr %4, align 8, !tbaa !495
  %33 = getelementptr inbounds nuw %"struct.cv::text::region_sequence", ptr %32, i32 0, i32 0
  %34 = load i64, ptr %8, align 8, !tbaa !118
  %35 = call noundef nonnull align 4 dereferenceable(68) ptr @_ZNSt6vectorIN2cv4text14region_tripletESaIS2_EEixEm(ptr noundef nonnull align 8 dereferenceable(24) %33, i64 noundef %34) #3
  %36 = getelementptr inbounds nuw %"struct.cv::text::region_triplet", ptr %35, i32 0, i32 3
  %37 = call noundef float @_ZN2cv4text22distanceLinesEstimatesERNS0_14line_estimatesES2_(ptr noundef nonnull align 4 dereferenceable(44) %31, ptr noundef nonnull align 4 dereferenceable(44) %36)
  %38 = fpext float %37 to double
  %39 = fcmp olt double %38, 4.500000e-01
  call void @llvm.lifetime.start.p0(i64 4, ptr %9) #3
  call void @llvm.lifetime.start.p0(i64 4, ptr %10) #3
  br i1 %39, label %40, label %92

40:                                               ; preds = %26
  %41 = load ptr, ptr %5, align 8, !tbaa !495
  %42 = getelementptr inbounds nuw %"struct.cv::text::region_sequence", ptr %41, i32 0, i32 0
  %43 = load i64, ptr %6, align 8, !tbaa !118
  %44 = call noundef nonnull align 4 dereferenceable(68) ptr @_ZNSt6vectorIN2cv4text14region_tripletESaIS2_EEixEm(ptr noundef nonnull align 8 dereferenceable(24) %42, i64 noundef %43) #3
  %45 = getelementptr inbounds nuw %"struct.cv::text::region_triplet", ptr %44, i32 0, i32 3
  %46 = getelementptr inbounds nuw %"struct.cv::text::line_estimates", ptr %45, i32 0, i32 8
  %47 = load i32, ptr %46, align 4, !tbaa !466
  %48 = load ptr, ptr %4, align 8, !tbaa !495
  %49 = getelementptr inbounds nuw %"struct.cv::text::region_sequence", ptr %48, i32 0, i32 0
  %50 = load i64, ptr %8, align 8, !tbaa !118
  %51 = call noundef nonnull align 4 dereferenceable(68) ptr @_ZNSt6vectorIN2cv4text14region_tripletESaIS2_EEixEm(ptr noundef nonnull align 8 dereferenceable(24) %49, i64 noundef %50) #3
  %52 = getelementptr inbounds nuw %"struct.cv::text::region_triplet", ptr %51, i32 0, i32 3
  %53 = getelementptr inbounds nuw %"struct.cv::text::line_estimates", ptr %52, i32 0, i32 9
  %54 = load i32, ptr %53, align 4, !tbaa !470
  %55 = sub nsw i32 %47, %54
  store i32 %55, ptr %9, align 4, !tbaa !8
  %56 = load ptr, ptr %4, align 8, !tbaa !495
  %57 = getelementptr inbounds nuw %"struct.cv::text::region_sequence", ptr %56, i32 0, i32 0
  %58 = load i64, ptr %8, align 8, !tbaa !118
  %59 = call noundef nonnull align 4 dereferenceable(68) ptr @_ZNSt6vectorIN2cv4text14region_tripletESaIS2_EEixEm(ptr noundef nonnull align 8 dereferenceable(24) %57, i64 noundef %58) #3
  %60 = getelementptr inbounds nuw %"struct.cv::text::region_triplet", ptr %59, i32 0, i32 3
  %61 = getelementptr inbounds nuw %"struct.cv::text::line_estimates", ptr %60, i32 0, i32 8
  %62 = load i32, ptr %61, align 4, !tbaa !466
  %63 = load ptr, ptr %5, align 8, !tbaa !495
  %64 = getelementptr inbounds nuw %"struct.cv::text::region_sequence", ptr %63, i32 0, i32 0
  %65 = load i64, ptr %6, align 8, !tbaa !118
  %66 = call noundef nonnull align 4 dereferenceable(68) ptr @_ZNSt6vectorIN2cv4text14region_tripletESaIS2_EEixEm(ptr noundef nonnull align 8 dereferenceable(24) %64, i64 noundef %65) #3
  %67 = getelementptr inbounds nuw %"struct.cv::text::region_triplet", ptr %66, i32 0, i32 3
  %68 = getelementptr inbounds nuw %"struct.cv::text::line_estimates", ptr %67, i32 0, i32 9
  %69 = load i32, ptr %68, align 4, !tbaa !470
  %70 = sub nsw i32 %62, %69
  store i32 %70, ptr %10, align 4, !tbaa !8
  %71 = call noundef nonnull align 4 dereferenceable(4) ptr @_ZSt3maxIiERKT_S2_S2_(ptr noundef nonnull align 4 dereferenceable(4) %9, ptr noundef nonnull align 4 dereferenceable(4) %10)
  %72 = load i32, ptr %71, align 4, !tbaa !8
  %73 = sitofp i32 %72 to float
  %74 = load ptr, ptr %5, align 8, !tbaa !495
  %75 = getelementptr inbounds nuw %"struct.cv::text::region_sequence", ptr %74, i32 0, i32 0
  %76 = load i64, ptr %6, align 8, !tbaa !118
  %77 = call noundef nonnull align 4 dereferenceable(68) ptr @_ZNSt6vectorIN2cv4text14region_tripletESaIS2_EEixEm(ptr noundef nonnull align 8 dereferenceable(24) %75, i64 noundef %76) #3
  %78 = getelementptr inbounds nuw %"struct.cv::text::region_triplet", ptr %77, i32 0, i32 3
  %79 = getelementptr inbounds nuw %"struct.cv::text::line_estimates", ptr %78, i32 0, i32 10
  %80 = load ptr, ptr %4, align 8, !tbaa !495
  %81 = getelementptr inbounds nuw %"struct.cv::text::region_sequence", ptr %80, i32 0, i32 0
  %82 = load i64, ptr %8, align 8, !tbaa !118
  %83 = call noundef nonnull align 4 dereferenceable(68) ptr @_ZNSt6vectorIN2cv4text14region_tripletESaIS2_EEixEm(ptr noundef nonnull align 8 dereferenceable(24) %81, i64 noundef %82) #3
  %84 = getelementptr inbounds nuw %"struct.cv::text::region_triplet", ptr %83, i32 0, i32 3
  %85 = getelementptr inbounds nuw %"struct.cv::text::line_estimates", ptr %84, i32 0, i32 10
  %86 = call noundef nonnull align 4 dereferenceable(4) ptr @_ZSt3maxIiERKT_S2_S2_(ptr noundef nonnull align 4 dereferenceable(4) %79, ptr noundef nonnull align 4 dereferenceable(4) %85)
  %87 = load i32, ptr %86, align 4, !tbaa !8
  %88 = sitofp i32 %87 to float
  %89 = fdiv float %73, %88
  %90 = fpext float %89 to double
  %91 = fcmp olt double %90, 0x401A666666666667
  br label %92

92:                                               ; preds = %40, %26
  %93 = phi i1 [ false, %26 ], [ %91, %40 ]
  call void @llvm.lifetime.end.p0(i64 4, ptr %10) #3
  call void @llvm.lifetime.end.p0(i64 4, ptr %9) #3
  br i1 %93, label %94, label %95

94:                                               ; preds = %92
  store i1 true, ptr %3, align 1
  store i32 1, ptr %7, align 4
  br label %99

95:                                               ; preds = %92
  br label %96

96:                                               ; preds = %95
  %97 = load i64, ptr %8, align 8, !tbaa !118
  %98 = add i64 %97, 1
  store i64 %98, ptr %8, align 8, !tbaa !118
  br label %19, !llvm.loop !497

99:                                               ; preds = %94, %25
  call void @llvm.lifetime.end.p0(i64 8, ptr %8) #3
  %100 = load i32, ptr %7, align 4
  switch i32 %100, label %105 [
    i32 5, label %101
  ]

101:                                              ; preds = %99
  br label %102

102:                                              ; preds = %101
  %103 = load i64, ptr %6, align 8, !tbaa !118
  %104 = add i64 %103, 1
  store i64 %104, ptr %6, align 8, !tbaa !118
  br label %11, !llvm.loop !498

105:                                              ; preds = %99, %17
  call void @llvm.lifetime.end.p0(i64 8, ptr %6) #3
  %106 = load i32, ptr %7, align 4
  switch i32 %106, label %110 [
    i32 2, label %107
    i32 1, label %108
  ]

107:                                              ; preds = %105
  store i1 false, ptr %3, align 1
  br label %108

108:                                              ; preds = %107, %105
  %109 = load i1, ptr %3, align 1
  ret i1 %109

110:                                              ; preds = %105
  unreachable
}