; Function Attrs: mustprogress uwtable
define hidden noundef zeroext i1 @_ZN2cv4text15isValidSequenceERNS0_15region_sequenceES2_(ptr noundef nonnull readonly align 8 captures(none) dereferenceable(24) %0, ptr noundef nonnull readonly align 8 captures(none) dereferenceable(24) %1) local_unnamed_addr #3 {
  %3 = getelementptr inbounds nuw i8, ptr %1, i64 8
  %4 = load ptr, ptr %3, align 8, !tbaa !520
  %5 = load ptr, ptr %1, align 8, !tbaa !523
  %.not3440.not = icmp eq ptr %4, %5
  br i1 %.not3440.not, label %.thread, label %.preheader.lr.ph

.preheader.lr.ph:                                 ; preds = %2
  %6 = getelementptr inbounds nuw i8, ptr %0, i64 8
  %.pre = load ptr, ptr %6, align 8, !tbaa !520
  %.pre44 = load ptr, ptr %0, align 8, !tbaa !523
  br label %.preheader

.preheader:                                       ; preds = %.preheader.lr.ph, %._crit_edge
  %7 = phi ptr [ %5, %.preheader.lr.ph ], [ %48, %._crit_edge ]
  %8 = phi ptr [ %4, %.preheader.lr.ph ], [ %49, %._crit_edge ]
  %9 = phi ptr [ %.pre44, %.preheader.lr.ph ], [ %50, %._crit_edge ]
  %10 = phi ptr [ %.pre, %.preheader.lr.ph ], [ %51, %._crit_edge ]
  %.02541 = phi i64 [ 0, %.preheader.lr.ph ], [ %52, %._crit_edge ]
  %.not38.not = icmp eq ptr %10, %9
  br i1 %.not38.not, label %._crit_edge, label %.lr.ph

.lr.ph:                                           ; preds = %.preheader, %.critedge
  %11 = phi ptr [ %.pre45, %.critedge ], [ %9, %.preheader ]
  %.039 = phi i64 [ %42, %.critedge ], [ 0, %.preheader ]
  %12 = load ptr, ptr %1, align 8, !tbaa !523
  %13 = getelementptr inbounds nuw %"struct.cv::text::region_triplet", ptr %12, i64 %.02541, i32 3
  %14 = getelementptr inbounds nuw %"struct.cv::text::region_triplet", ptr %11, i64 %.039, i32 3
  %15 = tail call noundef float @_ZN2cv4text22distanceLinesEstimatesERNS0_14line_estimatesES2_(ptr noundef nonnull align 4 dereferenceable(44) %13, ptr noundef nonnull align 4 dereferenceable(44) %14)
  %16 = fpext float %15 to double
  %17 = fcmp olt double %16, 4.500000e-01
  %.pre45 = load ptr, ptr %0, align 8, !tbaa !523
  br i1 %17, label %18, label %.critedge

18:                                               ; preds = %.lr.ph
  %19 = load ptr, ptr %1, align 8, !tbaa !523
  %20 = getelementptr inbounds nuw %"struct.cv::text::region_triplet", ptr %19, i64 %.02541
  %21 = getelementptr inbounds nuw i8, ptr %20, i64 56
  %22 = load i32, ptr %21, align 4, !tbaa !505
  %23 = getelementptr inbounds nuw %"struct.cv::text::region_triplet", ptr %.pre45, i64 %.039
  %24 = getelementptr inbounds nuw i8, ptr %23, i64 60
  %25 = load i32, ptr %24, align 4, !tbaa !509
  %26 = sub nsw i32 %22, %25
  %27 = getelementptr inbounds nuw i8, ptr %23, i64 56
  %28 = load i32, ptr %27, align 4, !tbaa !505
  %29 = getelementptr inbounds nuw i8, ptr %20, i64 60
  %30 = load i32, ptr %29, align 4, !tbaa !509
  %31 = sub nsw i32 %28, %30
  %.sroa.speculated = tail call i32 @llvm.smax.i32(i32 %26, i32 %31)
  %32 = sitofp i32 %.sroa.speculated to float
  %33 = getelementptr inbounds nuw i8, ptr %20, i64 64
  %34 = getelementptr inbounds nuw i8, ptr %23, i64 64
  %35 = load i32, ptr %33, align 4, !tbaa !23
  %36 = load i32, ptr %34, align 4, !tbaa !23
  %37 = tail call i32 @llvm.smax.i32(i32 %35, i32 %36)
  %38 = sitofp i32 %37 to float
  %39 = fdiv float %32, %38
  %40 = fpext float %39 to double
  %41 = fcmp olt double %40, 0x401A666666666667
  br i1 %41, label %.thread, label %.critedge

.critedge:                                        ; preds = %.lr.ph, %18
  %42 = add nuw i64 %.039, 1
  %43 = load ptr, ptr %6, align 8, !tbaa !520
  %44 = ptrtoint ptr %43 to i64
  %45 = ptrtoint ptr %.pre45 to i64
  %46 = sub i64 %44, %45
  %47 = sdiv exact i64 %46, 68
  %.not = icmp ult i64 %42, %47
  br i1 %.not, label %.lr.ph, label %._crit_edge.loopexit, !llvm.loop !524

._crit_edge.loopexit:                             ; preds = %.critedge
  %.pre46 = load ptr, ptr %3, align 8, !tbaa !520
  %.pre47 = load ptr, ptr %1, align 8, !tbaa !523
  br label %._crit_edge

._crit_edge:                                      ; preds = %._crit_edge.loopexit, %.preheader
  %48 = phi ptr [ %.pre47, %._crit_edge.loopexit ], [ %7, %.preheader ]
  %49 = phi ptr [ %.pre46, %._crit_edge.loopexit ], [ %8, %.preheader ]
  %50 = phi ptr [ %.pre45, %._crit_edge.loopexit ], [ %9, %.preheader ]
  %51 = phi ptr [ %43, %._crit_edge.loopexit ], [ %9, %.preheader ]
  %52 = add nuw i64 %.02541, 1
  %53 = ptrtoint ptr %49 to i64
  %54 = ptrtoint ptr %48 to i64
  %55 = sub i64 %53, %54
  %56 = sdiv exact i64 %55, 68
  %.not34 = icmp ult i64 %52, %56
  br i1 %.not34, label %.preheader, label %.thread, !llvm.loop !525

.thread:                                          ; preds = %._crit_edge, %18, %2
  %.not3437 = phi i1 [ false, %2 ], [ true, %18 ], [ false, %._crit_edge ]
  ret i1 %.not3437
}